target datalayout = "e-m:e-p270:32:32-p271:32:32-p272:64:64-i64:64-i128:128-f80:128-n8:16:32:64-S128"
target triple = "x86_64-pc-linux-gnu"

@.str.24 = private unnamed_addr constant [24 x i8] c"could not write to '%s'\00", align 1
@.str.25 = private unnamed_addr constant [21 x i8] c"could not close '%s'\00", align 1

; Function Attrs: nounwind uwtable
define dso_local void @write_file_buf(ptr noundef %0, ptr noundef %1, i64 noundef %2) #0 {
  %4 = alloca ptr, align 8
  %5 = alloca ptr, align 8
  %6 = alloca i64, align 8
  %7 = alloca i32, align 4
  store ptr %0, ptr %4, align 8, !tbaa !4
  store ptr %1, ptr %5, align 8, !tbaa !4
  store i64 %2, ptr %6, align 8, !tbaa !9
  call void @llvm.lifetime.start.p0(i64 4, ptr %7) #13
  %8 = load ptr, ptr %4, align 8, !tbaa !4
  %9 = call i32 (ptr, i32, ...) @xopen(ptr noundef %8, i32 noundef 577, i32 noundef 438)
  store i32 %9, ptr %7, align 4, !tbaa !11
  %10 = load i32, ptr %7, align 4, !tbaa !11
  %11 = load ptr, ptr %5, align 8, !tbaa !4
  %12 = load i64, ptr %6, align 8, !tbaa !9
  %13 = call i64 @write_in_full(i32 noundef %10, ptr noundef %11, i64 noundef %12)
  %14 = icmp slt i64 %13, 0
  br i1 %14, label %15, label %18

15:                                               ; preds = %3
  %16 = call ptr @_(ptr noundef @.str.24)
  %17 = load ptr, ptr %4, align 8, !tbaa !4
  call void (ptr, ...) @die_errno(ptr noundef %16, ptr noundef %17) #14
  unreachable

18:                                               ; preds = %3
  %19 = load i32, ptr %7, align 4, !tbaa !11
  %20 = call i32 @close(i32 noundef %19)
  %21 = icmp ne i32 %20, 0
  br i1 %21, label %22, label %25

22:                                               ; preds = %18
  %23 = call ptr @_(ptr noundef @.str.25)
  %24 = load ptr, ptr %4, align 8, !tbaa !4
  call void (ptr, ...) @die_errno(ptr noundef %23, ptr noundef %24) #14
  unreachable

25:                                               ; preds = %18
  call void @llvm.lifetime.end.p0(i64 4, ptr %7) #13
  ret void
}