; Function Attrs: nounwind uwtable
define dso_local void @write_file_buf(ptr noundef %0, ptr noundef readonly captures(none) %1, i64 noundef %2) local_unnamed_addr #0 {
  %4 = tail call i32 (ptr, i32, ...) @xopen(ptr noundef %0, i32 noundef 577, i32 noundef 438)
  %5 = tail call i64 @write_in_full(i32 noundef %4, ptr noundef %1, i64 noundef %2)
  %6 = icmp slt i64 %5, 0
  br i1 %6, label %7, label %9

7:                                                ; preds = %3
  %8 = tail call fastcc ptr @_(ptr noundef nonnull @.str.24)
  tail call void (ptr, ...) @die_errno(ptr noundef %8, ptr noundef %0) #21
  unreachable

9:                                                ; preds = %3
  %10 = tail call i32 @close(i32 noundef %4) #20
  %.not = icmp eq i32 %10, 0
  br i1 %.not, label %13, label %11

11:                                               ; preds = %9
  %12 = tail call fastcc ptr @_(ptr noundef nonnull @.str.25)
  tail call void (ptr, ...) @die_errno(ptr noundef %12, ptr noundef %0) #21
  unreachable

13:                                               ; preds = %9
  ret void
}